; Function Attrs: mustprogress uwtable
define hidden noundef double @_ZNK5ceres8internal10CudaVector4NormEv(ptr nocapture noundef nonnull readonly align 8 dereferenceable(48) %0) local_unnamed_addr #0 align 2 personality ptr @__gxx_personality_v0 {
  %2 = alloca %"class.google::base::CheckOpMessageBuilder", align 8
  %3 = alloca double, align 8
  %4 = alloca %"struct.google::CheckOpString", align 8
  %5 = alloca %"class.google::LogMessageFatal", align 8
  store double 0.000000e+00, ptr %3, align 8
  %6 = getelementptr inbounds i8, ptr %0, i64 8
  %7 = load ptr, ptr %6, align 8
  %8 = getelementptr inbounds i8, ptr %7, i64 256
  %9 = load ptr, ptr %8, align 8
  %10 = load i32, ptr %0, align 8
  %11 = getelementptr inbounds i8, ptr %0, i64 16
  %12 = load ptr, ptr %11, align 8
  %13 = call i32 @cublasDnrm2_v2(ptr noundef %9, i32 noundef %10, ptr noundef %12, i32 noundef 1, ptr noundef nonnull %3)
  %14 = icmp eq i32 %13, 0
  br i1 %14, label %_ZN6google12Check_EQImplI14cublasStatus_tS1_EEPNSt7__cxx1112basic_stringIcSt11char_traitsIcESaIcEEERKT_RKT0_PKc.exit.thread, label %15

15:                                               ; preds = %1
  call void @llvm.lifetime.start.p0(i64 8, ptr nonnull %2)
  call void @_ZN6google4base21CheckOpMessageBuilderC1EPKc(ptr noundef nonnull align 8 dereferenceable(8) %2, ptr noundef nonnull @.str.9)
  %16 = load ptr, ptr %2, align 8
  %17 = invoke noundef nonnull align 8 dereferenceable(8) ptr @_ZNSolsEi(ptr noundef nonnull align 8 dereferenceable(8) %16, i32 noundef %13)
          to label %_ZN6google22MakeCheckOpValueStringI14cublasStatus_tEEvPSoRKT_.exit.i.i unwind label %22

_ZN6google22MakeCheckOpValueStringI14cublasStatus_tEEvPSoRKT_.exit.i.i: ; preds = %15
  %18 = invoke noundef ptr @_ZN6google4base21CheckOpMessageBuilder7ForVar2Ev(ptr noundef nonnull align 8 dereferenceable(8) %2)
          to label %19 unwind label %22

19:                                               ; preds = %_ZN6google22MakeCheckOpValueStringI14cublasStatus_tEEvPSoRKT_.exit.i.i
  %20 = invoke noundef nonnull align 8 dereferenceable(8) ptr @_ZNSolsEi(ptr noundef nonnull align 8 dereferenceable(8) %18, i32 noundef 0)
          to label %_ZN6google22MakeCheckOpValueStringI14cublasStatus_tEEvPSoRKT_.exit4.i.i unwind label %22

_ZN6google22MakeCheckOpValueStringI14cublasStatus_tEEvPSoRKT_.exit4.i.i: ; preds = %19
  %21 = invoke noundef ptr @_ZN6google4base21CheckOpMessageBuilder9NewStringB5cxx11Ev(ptr noundef nonnull align 8 dereferenceable(8) %2)
          to label %_ZN6google12Check_EQImplI14cublasStatus_tS1_EEPNSt7__cxx1112basic_stringIcSt11char_traitsIcESaIcEEERKT_RKT0_PKc.exit unwind label %22

22:                                               ; preds = %_ZN6google22MakeCheckOpValueStringI14cublasStatus_tEEvPSoRKT_.exit4.i.i, %19, %_ZN6google22MakeCheckOpValueStringI14cublasStatus_tEEvPSoRKT_.exit.i.i, %15
  %23 = landingpad { ptr, i32 }
          cleanup
  call void @_ZN6google4base21CheckOpMessageBuilderD1Ev(ptr noundef nonnull align 8 dereferenceable(8) %2) #11
  resume { ptr, i32 } %23

_ZN6google12Check_EQImplI14cublasStatus_tS1_EEPNSt7__cxx1112basic_stringIcSt11char_traitsIcESaIcEEERKT_RKT0_PKc.exit: ; preds = %_ZN6google22MakeCheckOpValueStringI14cublasStatus_tEEvPSoRKT_.exit4.i.i
  call void @_ZN6google4base21CheckOpMessageBuilderD1Ev(ptr noundef nonnull align 8 dereferenceable(8) %2) #11
  call void @llvm.lifetime.end.p0(i64 8, ptr nonnull %2)
  store ptr %21, ptr %4, align 8
  %.not = icmp eq ptr %21, null
  br i1 %.not, label %_ZN6google12Check_EQImplI14cublasStatus_tS1_EEPNSt7__cxx1112basic_stringIcSt11char_traitsIcESaIcEEERKT_RKT0_PKc.exit.thread, label %24

24:                                               ; preds = %_ZN6google12Check_EQImplI14cublasStatus_tS1_EEPNSt7__cxx1112basic_stringIcSt11char_traitsIcESaIcEEERKT_RKT0_PKc.exit
  call void @_ZN6google15LogMessageFatalC1EPKciRKNS_13CheckOpStringE(ptr noundef nonnull align 8 dereferenceable(96) %5, ptr noundef nonnull @.str.3, i32 noundef 112, ptr noundef nonnull align 8 dereferenceable(8) %4)
  %25 = invoke noundef nonnull align 8 dereferenceable(8) ptr @_ZN6google10LogMessage6streamEv(ptr noundef nonnull align 8 dereferenceable(96) %5)
          to label %26 unwind label %29

26:                                               ; preds = %24
  %27 = invoke noundef nonnull align 8 dereferenceable(8) ptr @_ZStlsISt11char_traitsIcEERSt13basic_ostreamIcT_ES5_PKc(ptr noundef nonnull align 8 dereferenceable(8) %25, ptr noundef nonnull @.str.10)
          to label %28 unwind label %29

28:                                               ; preds = %26
  call void @_ZN6google15LogMessageFatalD1Ev(ptr noundef nonnull align 8 dereferenceable(96) %5) #12
  unreachable

29:                                               ; preds = %26, %24
  %30 = landingpad { ptr, i32 }
          cleanup
  call void @_ZN6google15LogMessageFatalD1Ev(ptr noundef nonnull align 8 dereferenceable(96) %5) #12
  unreachable

_ZN6google12Check_EQImplI14cublasStatus_tS1_EEPNSt7__cxx1112basic_stringIcSt11char_traitsIcESaIcEEERKT_RKT0_PKc.exit.thread: ; preds = %1, %_ZN6google12Check_EQImplI14cublasStatus_tS1_EEPNSt7__cxx1112basic_stringIcSt11char_traitsIcESaIcEEERKT_RKT0_PKc.exit
  %31 = load double, ptr %3, align 8
  ret double %31
}